target datalayout = "e-m:e-p270:32:32-p271:32:32-p272:64:64-i64:64-i128:128-f80:128-n8:16:32:64-S128"
target triple = "x86_64-pc-linux-gnu"

%struct.git_istream = type { ptr, ptr, ptr, i64, %struct.git_zstream, i32, %union.anon }
%struct.git_zstream = type { %struct.z_stream_s, i64, i64, i64, i64, ptr, ptr }
%struct.z_stream_s = type { ptr, i32, i64, ptr, i32, i64, ptr, ptr, ptr, ptr, ptr, i32, i64, i64 }
%union.anon = type { %struct.filtered_istream }
%struct.filtered_istream = type { ptr, ptr, [16384 x i8], [16384 x i8], i32, i32, i32, i32, i32 }

; Function Attrs: nounwind uwtable
define dso_local i32 @close_istream(ptr noundef %0) #0 {
  %2 = alloca ptr, align 8
  %3 = alloca i32, align 4
  store ptr %0, ptr %2, align 8, !tbaa !4
  call void @llvm.lifetime.start.p0(i64 4, ptr %3) #8
  %4 = load ptr, ptr %2, align 8, !tbaa !4
  %5 = getelementptr inbounds nuw %struct.git_istream, ptr %4, i32 0, i32 1
  %6 = load ptr, ptr %5, align 8, !tbaa !9
  %7 = load ptr, ptr %2, align 8, !tbaa !4
  %8 = call i32 %6(ptr noundef %7)
  store i32 %8, ptr %3, align 4, !tbaa !17
  %9 = load ptr, ptr %2, align 8, !tbaa !4
  call void @free(ptr noundef %9) #8
  %10 = load i32, ptr %3, align 4, !tbaa !17
  call void @llvm.lifetime.end.p0(i64 4, ptr %3) #8
  ret i32 %10
}

; Function Attrs: nounwind uwtable
define internal i32 @close_istream_filtered(ptr noundef %0) #0 {
  %2 = alloca ptr, align 8
  store ptr %0, ptr %2, align 8, !tbaa !4
  %3 = load ptr, ptr %2, align 8, !tbaa !4
  %4 = getelementptr inbounds nuw %struct.git_istream, ptr %3, i32 0, i32 6
  %5 = getelementptr inbounds nuw %struct.filtered_istream, ptr %4, i32 0, i32 1
  %6 = load ptr, ptr %5, align 8, !tbaa !69
  call void @free_stream_filter(ptr noundef %6)
  %7 = load ptr, ptr %2, align 8, !tbaa !4
  %8 = getelementptr inbounds nuw %struct.git_istream, ptr %7, i32 0, i32 6
  %9 = getelementptr inbounds nuw %struct.filtered_istream, ptr %8, i32 0, i32 0
  %10 = load ptr, ptr %9, align 8, !tbaa !69
  %11 = call i32 @close_istream(ptr noundef %10)
  ret i32 %11
}