; Function Attrs: nounwind uwtable
define internal i32 @close_istream_filtered(ptr noundef readonly captures(none) %0) #0 {
  %2 = getelementptr inbounds nuw i8, ptr %0, i64 200
  %3 = getelementptr inbounds nuw i8, ptr %0, i64 208
  %4 = load ptr, ptr %3, align 8, !tbaa !56
  tail call void @free_stream_filter(ptr noundef %4) #11
  %5 = load ptr, ptr %2, align 8, !tbaa !56
  %6 = getelementptr inbounds nuw i8, ptr %5, i64 8
  %7 = load ptr, ptr %6, align 8, !tbaa !4
  %8 = tail call i32 %7(ptr noundef %5) #11
  tail call void @free(ptr noundef %5) #11
  ret i32 %8
}